; Function Attrs: mustprogress nofree norecurse nosync nounwind willreturn memory(argmem: readwrite) uwtable
define internal ptr @lxb_html_tokenizer_state_script_data_less_than_sign(ptr nocapture noundef writeonly %0, ptr noundef readonly %1, ptr nocapture readnone %2) #2 {
  %4 = load i8, ptr %1, align 1
  switch i8 %4, label %9 [
    i8 47, label %5
    i8 33, label %7
  ]

5:                                                ; preds = %3
  store ptr @lxb_html_tokenizer_state_script_data_end_tag_open, ptr %0, align 8
  %6 = getelementptr inbounds i8, ptr %1, i64 1
  br label %10

7:                                                ; preds = %3
  store ptr @lxb_html_tokenizer_state_script_data_escape_start, ptr %0, align 8
  %8 = getelementptr inbounds i8, ptr %1, i64 1
  br label %10

9:                                                ; preds = %3
  store ptr @lxb_html_tokenizer_state_script_data, ptr %0, align 8
  br label %10

10:                                               ; preds = %9, %7, %5
  %.0 = phi ptr [ %1, %9 ], [ %8, %7 ], [ %6, %5 ]
  ret ptr %.0
}